target datalayout = "e-m:e-p270:32:32-p271:32:32-p272:64:64-i64:64-i128:128-f80:128-n8:16:32:64-S128"
target triple = "x86_64-pc-linux-gnu"

%struct.lua_TValue = type { %union.Value, [1 x i32], i32 }
%union.Value = type { ptr }

; Function Attrs: mustprogress nounwind uwtable
define internal noundef i32 @_ZL12luauF_assertP9lua_StateP10lua_TValueS2_iS2_i(ptr noundef %0, ptr noundef %1, ptr noundef %2, i32 noundef %3, ptr noundef %4, i32 noundef %5) #0 {
  %7 = alloca i32, align 4
  %8 = alloca ptr, align 8
  %9 = alloca ptr, align 8
  %10 = alloca ptr, align 8
  %11 = alloca i32, align 4
  %12 = alloca ptr, align 8
  %13 = alloca i32, align 4
  store ptr %0, ptr %8, align 8, !tbaa !4
  store ptr %1, ptr %9, align 8, !tbaa !9
  store ptr %2, ptr %10, align 8, !tbaa !9
  store i32 %3, ptr %11, align 4, !tbaa !11
  store ptr %4, ptr %12, align 8, !tbaa !9
  store i32 %5, ptr %13, align 4, !tbaa !11
  %14 = load i32, ptr %13, align 4, !tbaa !11
  %15 = icmp sge i32 %14, 1
  br i1 %15, label %16, label %35

16:                                               ; preds = %6
  %17 = load i32, ptr %11, align 4, !tbaa !11
  %18 = icmp eq i32 %17, 0
  br i1 %18, label %19, label %35

19:                                               ; preds = %16
  %20 = load ptr, ptr %10, align 8, !tbaa !9
  %21 = getelementptr inbounds nuw %struct.lua_TValue, ptr %20, i32 0, i32 2
  %22 = load i32, ptr %21, align 4, !tbaa !13
  %23 = icmp eq i32 %22, 0
  br i1 %23, label %35, label %24

24:                                               ; preds = %19
  %25 = load ptr, ptr %10, align 8, !tbaa !9
  %26 = getelementptr inbounds nuw %struct.lua_TValue, ptr %25, i32 0, i32 2
  %27 = load i32, ptr %26, align 4, !tbaa !13
  %28 = icmp eq i32 %27, 1
  br i1 %28, label %29, label %34

29:                                               ; preds = %24
  %30 = load ptr, ptr %10, align 8, !tbaa !9
  %31 = getelementptr inbounds nuw %struct.lua_TValue, ptr %30, i32 0, i32 0
  %32 = load i32, ptr %31, align 8, !tbaa !15
  %33 = icmp eq i32 %32, 0
  br i1 %33, label %35, label %34

34:                                               ; preds = %29, %24
  store i32 0, ptr %7, align 4
  br label %36

35:                                               ; preds = %29, %19, %16, %6
  store i32 -1, ptr %7, align 4
  br label %36

36:                                               ; preds = %35, %34
  %37 = load i32, ptr %7, align 4
  ret i32 %37
}