; Function Attrs: mustprogress nofree norecurse nosync nounwind willreturn memory(argmem: read) uwtable
define internal noundef range(i32 -1, 1) i32 @_ZL12luauF_assertP9lua_StateP10lua_TValueS2_iS2_i(ptr readnone captures(none) %0, ptr readnone captures(none) %1, ptr noundef readonly captures(none) %2, i32 noundef %3, ptr readnone captures(none) %4, i32 noundef %5) #0 {
  %7 = icmp sgt i32 %5, 0
  %8 = icmp eq i32 %3, 0
  %or.cond = and i1 %8, %7
  br i1 %or.cond, label %9, label %15

9:                                                ; preds = %6
  %10 = getelementptr inbounds nuw i8, ptr %2, i64 12
  %11 = load i32, ptr %10, align 4, !tbaa !4
  switch i32 %11, label %16 [
    i32 0, label %15
    i32 1, label %12
  ]

12:                                               ; preds = %9
  %13 = load i32, ptr %2, align 8, !tbaa !9
  %14 = icmp eq i32 %13, 0
  br i1 %14, label %15, label %16

15:                                               ; preds = %9, %12, %6
  br label %16

16:                                               ; preds = %12, %9, %15
  %.0 = phi i32 [ -1, %15 ], [ 0, %9 ], [ 0, %12 ]
  ret i32 %.0
}